target datalayout = "e-m:e-p270:32:32-p271:32:32-p272:64:64-i64:64-i128:128-f80:128-n8:16:32:64-S128"
target triple = "x86_64-pc-linux-gnu"

%struct.dtlink_s_ = type { ptr, %union.anon }
%union.anon = type { ptr }
%struct.Agsym_s = type { %struct.dtlink_s_, ptr, ptr, i32, i8, i8, i8 }

@.str.121 = private unnamed_addr constant [1 x i8] zeroinitializer, align 1
@.str.145 = private unnamed_addr constant [8 x i8] c"nxtAttr\00", align 1
@.str.146 = private unnamed_addr constant [8 x i8] c"fstAttr\00", align 1
@.str.147 = private unnamed_addr constant [75 x i8] c"Third argument \22%s\22 in nxtAttr() must be the name of an existing attribute\00", align 1
@.str.148 = private unnamed_addr constant [33 x i8] c"Unknown kind \22%s\22 passed to %s()\00", align 1

; Function Attrs: nounwind uwtable
define internal i32 @toKind(ptr noundef %0, ptr noundef %1) #0 {
  %3 = alloca ptr, align 8
  %4 = alloca ptr, align 8
  %5 = alloca i32, align 4
  store ptr %0, ptr %3, align 8, !tbaa !7
  store ptr %1, ptr %4, align 8, !tbaa !7
  call void @llvm.lifetime.start.p0(i64 4, ptr %5) #16
  %6 = load ptr, ptr %3, align 8, !tbaa !7
  %7 = load i8, ptr %6, align 1, !tbaa !97
  %8 = sext i8 %7 to i32
  switch i32 %8, label %12 [
    i32 71, label %9
    i32 69, label %10
    i32 78, label %11
  ]

9:                                                ; preds = %2
  store i32 0, ptr %5, align 4, !tbaa !26
  br label %15

10:                                               ; preds = %2
  store i32 2, ptr %5, align 4, !tbaa !26
  br label %15

11:                                               ; preds = %2
  store i32 1, ptr %5, align 4, !tbaa !26
  br label %15

12:                                               ; preds = %2
  %13 = load ptr, ptr %3, align 8, !tbaa !7
  %14 = load ptr, ptr %4, align 8, !tbaa !7
  call void (ptr, ...) @exerror(ptr noundef @.str.148, ptr noundef %13, ptr noundef %14)
  store i32 0, ptr %5, align 4, !tbaa !26
  br label %15

15:                                               ; preds = %12, %11, %10, %9
  %16 = load i32, ptr %5, align 4, !tbaa !26
  call void @llvm.lifetime.end.p0(i64 4, ptr %5) #16
  ret i32 %16
}

; Function Attrs: nounwind uwtable
define internal ptr @nxtAttr(ptr noundef %0, ptr noundef %1, ptr noundef %2) #0 {
  %4 = alloca ptr, align 8
  %5 = alloca ptr, align 8
  %6 = alloca ptr, align 8
  %7 = alloca ptr, align 8
  %8 = alloca ptr, align 8
  %9 = alloca i32, align 4
  %10 = alloca ptr, align 8
  %11 = alloca i32, align 4
  store ptr %0, ptr %5, align 8, !tbaa !92
  store ptr %1, ptr %6, align 8, !tbaa !7
  store ptr %2, ptr %7, align 8, !tbaa !7
  call void @llvm.lifetime.start.p0(i64 8, ptr %8) #16
  %12 = load ptr, ptr %7, align 8, !tbaa !7
  %13 = icmp ne ptr %12, null
  %14 = select i1 %13, ptr @.str.145, ptr @.str.146
  store ptr %14, ptr %8, align 8, !tbaa !7
  call void @llvm.lifetime.start.p0(i64 4, ptr %9) #16
  %15 = load ptr, ptr %6, align 8, !tbaa !7
  %16 = load ptr, ptr %8, align 8, !tbaa !7
  %17 = call i32 @toKind(ptr noundef %15, ptr noundef %16)
  store i32 %17, ptr %9, align 4, !tbaa !26
  call void @llvm.lifetime.start.p0(i64 8, ptr %10) #16
  %18 = load ptr, ptr %7, align 8, !tbaa !7
  %19 = icmp ne ptr %18, null
  br i1 %19, label %20, label %30

20:                                               ; preds = %3
  %21 = load ptr, ptr %5, align 8, !tbaa !92
  %22 = load i32, ptr %9, align 4, !tbaa !26
  %23 = load ptr, ptr %7, align 8, !tbaa !7
  %24 = call ptr @agattr(ptr noundef %21, i32 noundef %22, ptr noundef %23, ptr noundef null)
  store ptr %24, ptr %10, align 8, !tbaa !119
  %25 = load ptr, ptr %10, align 8, !tbaa !119
  %26 = icmp ne ptr %25, null
  br i1 %26, label %29, label %27

27:                                               ; preds = %20
  %28 = load ptr, ptr %7, align 8, !tbaa !7
  call void (ptr, ...) @exerror(ptr noundef @.str.147, ptr noundef %28)
  store ptr @.str.121, ptr %4, align 8
  store i32 1, ptr %11, align 4
  br label %43

29:                                               ; preds = %20
  br label %31

30:                                               ; preds = %3
  store ptr null, ptr %10, align 8, !tbaa !119
  br label %31

31:                                               ; preds = %30, %29
  %32 = load ptr, ptr %5, align 8, !tbaa !92
  %33 = load i32, ptr %9, align 4, !tbaa !26
  %34 = load ptr, ptr %10, align 8, !tbaa !119
  %35 = call ptr @agnxtattr(ptr noundef %32, i32 noundef %33, ptr noundef %34)
  store ptr %35, ptr %10, align 8, !tbaa !119
  %36 = load ptr, ptr %10, align 8, !tbaa !119
  %37 = icmp ne ptr %36, null
  br i1 %37, label %38, label %42

38:                                               ; preds = %31
  %39 = load ptr, ptr %10, align 8, !tbaa !119
  %40 = getelementptr inbounds nuw %struct.Agsym_s, ptr %39, i32 0, i32 1
  %41 = load ptr, ptr %40, align 8, !tbaa !139
  store ptr %41, ptr %4, align 8
  store i32 1, ptr %11, align 4
  br label %43

42:                                               ; preds = %31
  store ptr @.str.121, ptr %4, align 8
  store i32 1, ptr %11, align 4
  br label %43

43:                                               ; preds = %42, %38, %27
  call void @llvm.lifetime.end.p0(i64 8, ptr %10) #16
  call void @llvm.lifetime.end.p0(i64 4, ptr %9) #16
  call void @llvm.lifetime.end.p0(i64 8, ptr %8) #16
  %44 = load ptr, ptr %4, align 8
  ret ptr %44
}