; Function Attrs: nounwind uwtable
define internal fastcc ptr @nxtAttr(ptr noundef nonnull %0, ptr noundef nonnull %1, ptr noundef %2) unnamed_addr #0 {
  %.not = icmp eq ptr %2, null
  %4 = load i8, ptr %1, align 1, !tbaa !65
  switch i8 %4, label %7 [
    i8 71, label %toKind.exit
    i8 69, label %5
    i8 78, label %6
  ]

5:                                                ; preds = %3
  br label %toKind.exit

6:                                                ; preds = %3
  br label %toKind.exit

7:                                                ; preds = %3
  %8 = select i1 %.not, ptr @.str.146, ptr @.str.145
  tail call void (ptr, ...) @exerror(ptr noundef nonnull @.str.148, ptr noundef nonnull %1, ptr noundef nonnull %8) #25
  br label %toKind.exit

toKind.exit:                                      ; preds = %3, %5, %6, %7
  %.0.i = phi i32 [ 0, %7 ], [ 1, %6 ], [ 2, %5 ], [ 0, %3 ]
  br i1 %.not, label %12, label %9

9:                                                ; preds = %toKind.exit
  %10 = tail call ptr @agattr(ptr noundef nonnull %0, i32 noundef %.0.i, ptr noundef nonnull %2, ptr noundef null) #25
  %.not18 = icmp eq ptr %10, null
  br i1 %.not18, label %11, label %12

11:                                               ; preds = %9
  tail call void (ptr, ...) @exerror(ptr noundef nonnull @.str.147, ptr noundef nonnull %2) #25
  br label %17

12:                                               ; preds = %toKind.exit, %9
  %.0 = phi ptr [ %10, %9 ], [ null, %toKind.exit ]
  %13 = tail call ptr @agnxtattr(ptr noundef nonnull %0, i32 noundef %.0.i, ptr noundef %.0) #25
  %.not19 = icmp eq ptr %13, null
  br i1 %.not19, label %17, label %14

14:                                               ; preds = %12
  %15 = getelementptr inbounds nuw i8, ptr %13, i64 16
  %16 = load ptr, ptr %15, align 8, !tbaa !135
  br label %17

17:                                               ; preds = %12, %14, %11
  %.014 = phi ptr [ %16, %14 ], [ @.str.121, %11 ], [ @.str.121, %12 ]
  ret ptr %.014
}